target datalayout = "e-m:e-p270:32:32-p271:32:32-p272:64:64-i64:64-i128:128-f80:128-n8:16:32:64-S128"
target triple = "x86_64-pc-linux-gnu"

%struct.H5FD_splitter_fapl_t = type { i64, i64, [4097 x i8], [4097 x i8], i8 }
%struct.H5FD_splitter_t = type { %struct.H5FD_t, i32, %struct.H5FD_splitter_fapl_t, ptr, ptr, ptr }
%struct.H5FD_t = type { i64, ptr, i64, i32, i64, i64, i64, i64, i64, i8 }

@H5FD_init_g = external global i8, align 1
@H5_libterm_g = external global i8, align 1
@.str = private unnamed_addr constant [106 x i8] c"generated/home/dtcxzyw/WorkSpace/Projects/compilers/llvm-opt-benchmark/bench/hdf5/hdf5/src/H5FDsplitter.c\00", align 1
@H5E_VFL_g = external global i64, align 8
@__func__.H5FD__splitter_truncate = private unnamed_addr constant [24 x i8] c"H5FD__splitter_truncate\00", align 1
@H5E_CANTUPDATE_g = external global i64, align 8
@.str.64 = private unnamed_addr constant [28 x i8] c"unable to truncate R/W file\00", align 1
@.str.65 = private unnamed_addr constant [28 x i8] c"unable to truncate W/O file\00", align 1

; Function Attrs: nounwind uwtable
define internal i32 @H5FD__splitter_truncate(ptr noundef %0, i64 noundef %1, i1 noundef zeroext %2) #0 {
  %4 = alloca ptr, align 8
  %5 = alloca i64, align 8
  %6 = alloca i8, align 1
  %7 = alloca ptr, align 8
  %8 = alloca i32, align 4
  %9 = alloca i8, align 1
  store ptr %0, ptr %4, align 8, !tbaa !38
  store i64 %1, ptr %5, align 8, !tbaa !11
  %10 = zext i1 %2 to i8
  store i8 %10, ptr %6, align 1, !tbaa !7
  call void @llvm.lifetime.start.p0(i64 8, ptr %7) #10
  %11 = load ptr, ptr %4, align 8, !tbaa !38
  store ptr %11, ptr %7, align 8, !tbaa !40
  call void @llvm.lifetime.start.p0(i64 4, ptr %8) #10
  store i32 0, ptr %8, align 4, !tbaa !3
  call void @llvm.lifetime.start.p0(i64 1, ptr %9) #10
  store i8 0, ptr %9, align 1, !tbaa !7
  %12 = load i8, ptr @H5FD_init_g, align 1, !tbaa !7, !range !9, !noundef !10
  %13 = trunc i8 %12 to i1
  br i1 %13, label %18, label %14

14:                                               ; preds = %3
  %15 = load i8, ptr @H5_libterm_g, align 1, !tbaa !7, !range !9, !noundef !10
  %16 = trunc i8 %15 to i1
  %17 = xor i1 %16, true
  br label %18

18:                                               ; preds = %14, %3
  %19 = phi i1 [ true, %3 ], [ %17, %14 ]
  %20 = xor i1 %19, true
  %21 = xor i1 %20, true
  %22 = zext i1 %21 to i32
  %23 = sext i32 %22 to i64
  %24 = call i64 @llvm.expect.i64(i64 %23, i64 1)
  %25 = icmp ne i64 %24, 0
  br i1 %25, label %26, label %95

26:                                               ; preds = %18
  %27 = load ptr, ptr %7, align 8, !tbaa !40
  %28 = getelementptr inbounds nuw %struct.H5FD_splitter_t, ptr %27, i32 0, i32 3
  %29 = load ptr, ptr %28, align 8, !tbaa !42
  %30 = load i64, ptr %5, align 8, !tbaa !11
  %31 = load i8, ptr %6, align 1, !tbaa !7, !range !9, !noundef !10
  %32 = trunc i8 %31 to i1
  %33 = call i32 @H5FDtruncate(ptr noundef %29, i64 noundef %30, i1 noundef zeroext %32)
  %34 = icmp slt i32 %33, 0
  br i1 %34, label %35, label %54

35:                                               ; preds = %26
  br label %36

36:                                               ; preds = %35
  br label %37

37:                                               ; preds = %36
  br label %38

38:                                               ; preds = %37
  %39 = load i64, ptr @H5E_VFL_g, align 8, !tbaa !11
  %40 = load i64, ptr @H5E_CANTUPDATE_g, align 8, !tbaa !11
  %41 = call i32 (ptr, ptr, i32, i64, i64, ptr, ...) @H5E_printf_stack(ptr noundef @.str, ptr noundef @__func__.H5FD__splitter_truncate, i32 noundef 1036, i64 noundef %39, i64 noundef %40, ptr noundef @.str.64)
  br label %42

42:                                               ; preds = %38
  br label %43

43:                                               ; preds = %42
  store i8 1, ptr %9, align 1, !tbaa !7
  %44 = load i8, ptr %9, align 1, !tbaa !7, !range !9, !noundef !10
  %45 = trunc i8 %44 to i1
  %46 = zext i1 %45 to i8
  store i8 %46, ptr %9, align 1, !tbaa !7
  br label %47

47:                                               ; preds = %43
  br label %48

48:                                               ; preds = %47
  br label %49

49:                                               ; preds = %48
  store i32 -1, ptr %8, align 4, !tbaa !3
  br label %94

50:                                               ; No predecessors!
  br label %51

51:                                               ; preds = %50
  br label %52

52:                                               ; preds = %51
  br label %53

53:                                               ; preds = %52
  br label %54

54:                                               ; preds = %53, %26
  %55 = load ptr, ptr %7, align 8, !tbaa !40
  %56 = getelementptr inbounds nuw %struct.H5FD_splitter_t, ptr %55, i32 0, i32 4
  %57 = load ptr, ptr %56, align 8, !tbaa !52
  %58 = load i64, ptr %5, align 8, !tbaa !11
  %59 = load i8, ptr %6, align 1, !tbaa !7, !range !9, !noundef !10
  %60 = trunc i8 %59 to i1
  %61 = call i32 @H5FDtruncate(ptr noundef %57, i64 noundef %58, i1 noundef zeroext %60)
  %62 = icmp slt i32 %61, 0
  br i1 %62, label %63, label %93

63:                                               ; preds = %54
  %64 = load ptr, ptr %7, align 8, !tbaa !40
  %65 = call i32 @H5FD__splitter_log_error(ptr noundef %64, ptr noundef @__func__.H5FD__splitter_truncate, ptr noundef @.str.65)
  %66 = load ptr, ptr %7, align 8, !tbaa !40
  %67 = getelementptr inbounds nuw %struct.H5FD_splitter_t, ptr %66, i32 0, i32 2
  %68 = getelementptr inbounds nuw %struct.H5FD_splitter_fapl_t, ptr %67, i32 0, i32 4
  %69 = load i8, ptr %68, align 2, !tbaa !50, !range !9, !noundef !10
  %70 = trunc i8 %69 to i1
  %71 = zext i1 %70 to i32
  %72 = icmp eq i32 0, %71
  br i1 %72, label %73, label %92

73:                                               ; preds = %63
  br label %74

74:                                               ; preds = %73
  br label %75

75:                                               ; preds = %74
  br label %76

76:                                               ; preds = %75
  %77 = load i64, ptr @H5E_VFL_g, align 8, !tbaa !11
  %78 = load i64, ptr @H5E_CANTUPDATE_g, align 8, !tbaa !11
  %79 = call i32 (ptr, ptr, i32, i64, i64, ptr, ...) @H5E_printf_stack(ptr noundef @.str, ptr noundef @__func__.H5FD__splitter_truncate, i32 noundef 1039, i64 noundef %77, i64 noundef %78, ptr noundef @.str.65)
  br label %80

80:                                               ; preds = %76
  br label %81

81:                                               ; preds = %80
  store i8 1, ptr %9, align 1, !tbaa !7
  %82 = load i8, ptr %9, align 1, !tbaa !7, !range !9, !noundef !10
  %83 = trunc i8 %82 to i1
  %84 = zext i1 %83 to i8
  store i8 %84, ptr %9, align 1, !tbaa !7
  br label %85

85:                                               ; preds = %81
  br label %86

86:                                               ; preds = %85
  br label %87

87:                                               ; preds = %86
  store i32 -1, ptr %8, align 4, !tbaa !3
  br label %94

88:                                               ; No predecessors!
  br label %89

89:                                               ; preds = %88
  br label %90

90:                                               ; preds = %89
  br label %91

91:                                               ; preds = %90
  br label %92

92:                                               ; preds = %91, %63
  br label %93

93:                                               ; preds = %92, %54
  br label %94

94:                                               ; preds = %93, %87, %49
  br label %95

95:                                               ; preds = %94, %18
  %96 = load i32, ptr %8, align 4, !tbaa !3
  call void @llvm.lifetime.end.p0(i64 1, ptr %9) #10
  call void @llvm.lifetime.end.p0(i64 4, ptr %8) #10
  call void @llvm.lifetime.end.p0(i64 8, ptr %7) #10
  ret i32 %96
}